target datalayout = "e-m:e-p270:32:32-p271:32:32-p272:64:64-i64:64-i128:128-f80:128-n8:16:32:64-S128"
target triple = "x86_64-unknown-linux-gnu"

%"class.re2::Regexp" = type { i8, i8, i16, i16, i16, %union.anon, ptr, %union.anon.0 }
%union.anon = type { ptr }
%union.anon.0 = type { %struct.anon.1 }
%struct.anon.1 = type { i32, ptr }
%struct.anon.2 = type { i32, ptr }

; Function Attrs: mustprogress uwtable
define void @_ZN3re26Regexp15AddRuneToStringEi(ptr noundef nonnull align 8 dereferenceable(40) %this, i32 noundef %r) #3 align 2 {
entry:
  %this.addr = alloca ptr, align 8
  %r.addr = alloca i32, align 4
  %old = alloca ptr, align 8
  %i = alloca i32, align 4
  store ptr %this, ptr %this.addr, align 8
  store i32 %r, ptr %r.addr, align 4
  %this1 = load ptr, ptr %this.addr, align 8
  %0 = getelementptr inbounds %"class.re2::Regexp", ptr %this1, i32 0, i32 7
  %nrunes_ = getelementptr inbounds %struct.anon.2, ptr %0, i32 0, i32 0
  %1 = load i32, ptr %nrunes_, align 8
  %cmp = icmp eq i32 %1, 0
  br i1 %cmp, label %if.then, label %if.else

if.then:                                          ; preds = %entry
  %call = call noalias noundef nonnull ptr @_Znam(i64 noundef 32) #19
  %2 = getelementptr inbounds %"class.re2::Regexp", ptr %this1, i32 0, i32 7
  %runes_ = getelementptr inbounds %struct.anon.2, ptr %2, i32 0, i32 1
  store ptr %call, ptr %runes_, align 8
  br label %if.end17

if.else:                                          ; preds = %entry
  %3 = getelementptr inbounds %"class.re2::Regexp", ptr %this1, i32 0, i32 7
  %nrunes_2 = getelementptr inbounds %struct.anon.2, ptr %3, i32 0, i32 0
  %4 = load i32, ptr %nrunes_2, align 8
  %cmp3 = icmp sge i32 %4, 8
  br i1 %cmp3, label %land.lhs.true, label %if.end

land.lhs.true:                                    ; preds = %if.else
  %5 = getelementptr inbounds %"class.re2::Regexp", ptr %this1, i32 0, i32 7
  %nrunes_4 = getelementptr inbounds %struct.anon.2, ptr %5, i32 0, i32 0
  %6 = load i32, ptr %nrunes_4, align 8
  %7 = getelementptr inbounds %"class.re2::Regexp", ptr %this1, i32 0, i32 7
  %nrunes_5 = getelementptr inbounds %struct.anon.2, ptr %7, i32 0, i32 0
  %8 = load i32, ptr %nrunes_5, align 8
  %sub = sub nsw i32 %8, 1
  %and = and i32 %6, %sub
  %cmp6 = icmp eq i32 %and, 0
  br i1 %cmp6, label %if.then7, label %if.end

if.then7:                                         ; preds = %land.lhs.true
  %9 = getelementptr inbounds %"class.re2::Regexp", ptr %this1, i32 0, i32 7
  %runes_8 = getelementptr inbounds %struct.anon.2, ptr %9, i32 0, i32 1
  %10 = load ptr, ptr %runes_8, align 8
  store ptr %10, ptr %old, align 8
  %11 = getelementptr inbounds %"class.re2::Regexp", ptr %this1, i32 0, i32 7
  %nrunes_9 = getelementptr inbounds %struct.anon.2, ptr %11, i32 0, i32 0
  %12 = load i32, ptr %nrunes_9, align 8
  %mul = mul nsw i32 %12, 2
  %conv = sext i32 %mul to i64
  %13 = call { i64, i1 } @llvm.umul.with.overflow.i64(i64 %conv, i64 4)
  %14 = extractvalue { i64, i1 } %13, 1
  %15 = extractvalue { i64, i1 } %13, 0
  %16 = select i1 %14, i64 -1, i64 %15
  %call10 = call noalias noundef nonnull ptr @_Znam(i64 noundef %16) #19
  %17 = getelementptr inbounds %"class.re2::Regexp", ptr %this1, i32 0, i32 7
  %runes_11 = getelementptr inbounds %struct.anon.2, ptr %17, i32 0, i32 1
  store ptr %call10, ptr %runes_11, align 8
  store i32 0, ptr %i, align 4
  br label %for.cond

for.cond:                                         ; preds = %for.inc, %if.then7
  %18 = load i32, ptr %i, align 4
  %19 = getelementptr inbounds %"class.re2::Regexp", ptr %this1, i32 0, i32 7
  %nrunes_12 = getelementptr inbounds %struct.anon.2, ptr %19, i32 0, i32 0
  %20 = load i32, ptr %nrunes_12, align 8
  %cmp13 = icmp slt i32 %18, %20
  br i1 %cmp13, label %for.body, label %for.end

for.body:                                         ; preds = %for.cond
  %21 = load ptr, ptr %old, align 8
  %22 = load i32, ptr %i, align 4
  %idxprom = sext i32 %22 to i64
  %arrayidx = getelementptr inbounds i32, ptr %21, i64 %idxprom
  %23 = load i32, ptr %arrayidx, align 4
  %24 = getelementptr inbounds %"class.re2::Regexp", ptr %this1, i32 0, i32 7
  %runes_14 = getelementptr inbounds %struct.anon.2, ptr %24, i32 0, i32 1
  %25 = load ptr, ptr %runes_14, align 8
  %26 = load i32, ptr %i, align 4
  %idxprom15 = sext i32 %26 to i64
  %arrayidx16 = getelementptr inbounds i32, ptr %25, i64 %idxprom15
  store i32 %23, ptr %arrayidx16, align 4
  br label %for.inc

for.inc:                                          ; preds = %for.body
  %27 = load i32, ptr %i, align 4
  %inc = add nsw i32 %27, 1
  store i32 %inc, ptr %i, align 4
  br label %for.cond, !llvm.loop !7

for.end:                                          ; preds = %for.cond
  %28 = load ptr, ptr %old, align 8
  %isnull = icmp eq ptr %28, null
  br i1 %isnull, label %delete.end, label %delete.notnull

delete.notnull:                                   ; preds = %for.end
  call void @_ZdaPv(ptr noundef %28) #17
  br label %delete.end

delete.end:                                       ; preds = %delete.notnull, %for.end
  br label %if.end

if.end:                                           ; preds = %delete.end, %land.lhs.true, %if.else
  br label %if.end17

if.end17:                                         ; preds = %if.end, %if.then
  %29 = load i32, ptr %r.addr, align 4
  %30 = getelementptr inbounds %"class.re2::Regexp", ptr %this1, i32 0, i32 7
  %runes_18 = getelementptr inbounds %struct.anon.2, ptr %30, i32 0, i32 1
  %31 = load ptr, ptr %runes_18, align 8
  %32 = getelementptr inbounds %"class.re2::Regexp", ptr %this1, i32 0, i32 7
  %nrunes_19 = getelementptr inbounds %struct.anon.2, ptr %32, i32 0, i32 0
  %33 = load i32, ptr %nrunes_19, align 8
  %inc20 = add nsw i32 %33, 1
  store i32 %inc20, ptr %nrunes_19, align 8
  %idxprom21 = sext i32 %33 to i64
  %arrayidx22 = getelementptr inbounds i32, ptr %31, i64 %idxprom21
  store i32 %29, ptr %arrayidx22, align 4
  ret void
}