; Function Attrs: mustprogress uwtable
define void @_ZN3re26Regexp15AddRuneToStringEi(ptr nocapture noundef nonnull align 8 dereferenceable(40) %this, i32 noundef %r) local_unnamed_addr #7 align 2 {
entry:
  %0 = getelementptr inbounds i8, ptr %this, i64 24
  %1 = load i32, ptr %0, align 8
  %cmp = icmp eq i32 %1, 0
  br i1 %cmp, label %if.then, label %if.else

if.then:                                          ; preds = %entry
  %call = tail call noalias noundef nonnull dereferenceable(32) ptr @_Znam(i64 noundef 32) #29
  %runes_ = getelementptr inbounds i8, ptr %this, i64 32
  store ptr %call, ptr %runes_, align 8
  br label %if.end17

if.else:                                          ; preds = %entry
  %cmp3 = icmp sgt i32 %1, 7
  %2 = tail call i32 @llvm.ctpop.i32(i32 %1), !range !17
  %cmp6 = icmp ult i32 %2, 2
  %or.cond = select i1 %cmp3, i1 %cmp6, i1 false
  br i1 %or.cond, label %for.body.preheader, label %if.end17

for.body.preheader:                               ; preds = %if.else
  %runes_8 = getelementptr inbounds i8, ptr %this, i64 32
  %3 = load ptr, ptr %runes_8, align 8
  %mul = shl nuw nsw i32 %1, 1
  %conv = zext nneg i32 %mul to i64
  %4 = shl nuw nsw i64 %conv, 2
  %call10 = tail call noalias noundef nonnull ptr @_Znam(i64 noundef %4) #29
  store ptr %call10, ptr %runes_8, align 8
  br label %for.body

for.body:                                         ; preds = %for.body.preheader, %for.body
  %indvars.iv = phi i64 [ 0, %for.body.preheader ], [ %indvars.iv.next, %for.body ]
  %arrayidx = getelementptr inbounds i32, ptr %3, i64 %indvars.iv
  %5 = load i32, ptr %arrayidx, align 4
  %6 = load ptr, ptr %runes_8, align 8
  %arrayidx16 = getelementptr inbounds i32, ptr %6, i64 %indvars.iv
  store i32 %5, ptr %arrayidx16, align 4
  %indvars.iv.next = add nuw nsw i64 %indvars.iv, 1
  %7 = load i32, ptr %0, align 8
  %8 = sext i32 %7 to i64
  %cmp13 = icmp slt i64 %indvars.iv.next, %8
  br i1 %cmp13, label %for.body, label %delete.notnull, !llvm.loop !18

delete.notnull:                                   ; preds = %for.body
  tail call void @_ZdaPv(ptr noundef nonnull %3) #26
  %.pre = load i32, ptr %0, align 8
  br label %if.end17

if.end17:                                         ; preds = %if.else, %delete.notnull, %if.then
  %9 = phi i32 [ %1, %if.else ], [ %.pre, %delete.notnull ], [ 0, %if.then ]
  %runes_18 = getelementptr inbounds i8, ptr %this, i64 32
  %10 = load ptr, ptr %runes_18, align 8
  %inc20 = add nsw i32 %9, 1
  store i32 %inc20, ptr %0, align 8
  %idxprom21 = sext i32 %9 to i64
  %arrayidx22 = getelementptr inbounds i32, ptr %10, i64 %idxprom21
  store i32 %r, ptr %arrayidx22, align 4
  ret void
}